; Function Attrs: mustprogress nofree norecurse nosync nounwind willreturn memory(argmem: write) uwtable
define hidden range(i32 0, 2) i32 @luaV_flttointeger(double noundef %0, ptr noundef writeonly captures(none) %1, i32 noundef %2) local_unnamed_addr #2 {
  %4 = tail call double @llvm.floor.f64(double %0)
  %5 = fcmp une double %0, %4
  br i1 %5, label %6, label %9

6:                                                ; preds = %3
  switch i32 %2, label %9 [
    i32 0, label %16
    i32 2, label %7
  ]

7:                                                ; preds = %6
  %8 = fadd double %4, 1.000000e+00
  br label %9

9:                                                ; preds = %6, %7, %3
  %.0 = phi double [ %8, %7 ], [ %4, %3 ], [ %4, %6 ]
  %10 = fcmp oge double %.0, 0xC3E0000000000000
  %11 = fcmp olt double %.0, 0x43E0000000000000
  %or.cond = and i1 %10, %11
  br i1 %or.cond, label %12, label %14

12:                                               ; preds = %9
  %13 = fptosi double %.0 to i64
  store i64 %13, ptr %1, align 8, !tbaa !18
  br label %14

14:                                               ; preds = %12, %9
  %15 = zext i1 %or.cond to i32
  br label %16

16:                                               ; preds = %6, %14
  %.011 = phi i32 [ %15, %14 ], [ %2, %6 ]
  ret i32 %.011
}